target datalayout = "e-m:e-p270:32:32-p271:32:32-p272:64:64-i64:64-i128:128-f80:128-n8:16:32:64-S128"
target triple = "x86_64-pc-linux-gnu"

%"struct.icu_77::SingleUnitImpl" = type { i32, i32, i32 }

@_ZN6icu_7712_GLOBAL__N_121gSimpleUnitCategoriesE = internal global ptr null, align 8

; Function Attrs: mustprogress nounwind uwtable
define i32 @umeas_getPrefixPower_77(i32 noundef %0) #0 {
  %2 = alloca i32, align 4
  %3 = alloca i32, align 4
  store i32 %0, ptr %3, align 4, !tbaa !23
  %4 = load i32, ptr %3, align 4, !tbaa !23
  %5 = icmp sge i32 %4, -59
  br i1 %5, label %6, label %12

6:                                                ; preds = %1
  %7 = load i32, ptr %3, align 4, !tbaa !23
  %8 = icmp sle i32 %7, -52
  br i1 %8, label %9, label %12

9:                                                ; preds = %6
  %10 = load i32, ptr %3, align 4, !tbaa !23
  %11 = sub nsw i32 %10, -60
  store i32 %11, ptr %2, align 4
  br label %15

12:                                               ; preds = %6, %1
  %13 = load i32, ptr %3, align 4, !tbaa !23
  %14 = sub nsw i32 %13, 30
  store i32 %14, ptr %2, align 4
  br label %15

15:                                               ; preds = %12, %9
  %16 = load i32, ptr %2, align 4
  ret i32 %16
}

; Function Attrs: mustprogress nounwind uwtable
define i32 @umeas_getPrefixBase_77(i32 noundef %0) #0 {
  %2 = alloca i32, align 4
  %3 = alloca i32, align 4
  store i32 %0, ptr %3, align 4, !tbaa !23
  %4 = load i32, ptr %3, align 4, !tbaa !23
  %5 = icmp sge i32 %4, -59
  br i1 %5, label %6, label %10

6:                                                ; preds = %1
  %7 = load i32, ptr %3, align 4, !tbaa !23
  %8 = icmp sle i32 %7, -52
  br i1 %8, label %9, label %10

9:                                                ; preds = %6
  store i32 1024, ptr %2, align 4
  br label %11

10:                                               ; preds = %6, %1
  store i32 10, ptr %2, align 4
  br label %11

11:                                               ; preds = %10, %9
  %12 = load i32, ptr %2, align 4
  ret i32 %12
}

; Function Attrs: mustprogress nounwind uwtable
define noundef i32 @_ZNK6icu_7714SingleUnitImpl20getUnitCategoryIndexEv(ptr noundef nonnull align 4 dereferenceable(12) %0) #0 align 2 {
  %2 = alloca ptr, align 8
  store ptr %0, ptr %2, align 8, !tbaa !79
  %3 = load ptr, ptr %2, align 8
  %4 = load ptr, ptr @_ZN6icu_7712_GLOBAL__N_121gSimpleUnitCategoriesE, align 8, !tbaa !20
  %5 = getelementptr inbounds nuw %"struct.icu_77::SingleUnitImpl", ptr %3, i32 0, i32 0
  %6 = load i32, ptr %5, align 4, !tbaa !86
  %7 = sext i32 %6 to i64
  %8 = getelementptr inbounds i32, ptr %4, i64 %7
  %9 = load i32, ptr %8, align 4, !tbaa !14
  ret i32 %9
}

; Function Attrs: mustprogress nounwind uwtable
define linkonce_odr noundef i32 @_ZNK6icu_7714SingleUnitImpl9compareToERKS0_(ptr noundef nonnull align 4 dereferenceable(12) %0, ptr noundef nonnull align 4 dereferenceable(12) %1) #0 comdat align 2 {
  %3 = alloca i32, align 4
  %4 = alloca ptr, align 8
  %5 = alloca ptr, align 8
  %6 = alloca i32, align 4
  %7 = alloca i32, align 4
  %8 = alloca i32, align 4
  %9 = alloca i32, align 4
  %10 = alloca i32, align 4
  %11 = alloca i32, align 4
  %12 = alloca i32, align 4
  store ptr %0, ptr %4, align 8, !tbaa !79
  store ptr %1, ptr %5, align 8, !tbaa !79
  %13 = load ptr, ptr %4, align 8
  %14 = getelementptr inbounds nuw %"struct.icu_77::SingleUnitImpl", ptr %13, i32 0, i32 2
  %15 = load i32, ptr %14, align 4, !tbaa !72
  %16 = icmp slt i32 %15, 0
  br i1 %16, label %17, label %23

17:                                               ; preds = %2
  %18 = load ptr, ptr %5, align 8, !tbaa !79
  %19 = getelementptr inbounds nuw %"struct.icu_77::SingleUnitImpl", ptr %18, i32 0, i32 2
  %20 = load i32, ptr %19, align 4, !tbaa !72
  %21 = icmp sgt i32 %20, 0
  br i1 %21, label %22, label %23

22:                                               ; preds = %17
  store i32 1, ptr %3, align 4
  br label %120

23:                                               ; preds = %17, %2
  %24 = getelementptr inbounds nuw %"struct.icu_77::SingleUnitImpl", ptr %13, i32 0, i32 2
  %25 = load i32, ptr %24, align 4, !tbaa !72
  %26 = icmp sgt i32 %25, 0
  br i1 %26, label %27, label %33

27:                                               ; preds = %23
  %28 = load ptr, ptr %5, align 8, !tbaa !79
  %29 = getelementptr inbounds nuw %"struct.icu_77::SingleUnitImpl", ptr %28, i32 0, i32 2
  %30 = load i32, ptr %29, align 4, !tbaa !72
  %31 = icmp slt i32 %30, 0
  br i1 %31, label %32, label %33

32:                                               ; preds = %27
  store i32 -1, ptr %3, align 4
  br label %120

33:                                               ; preds = %27, %23
  call void @llvm.lifetime.start.p0(i64 4, ptr %6) #14
  %34 = call noundef i32 @_ZNK6icu_7714SingleUnitImpl20getUnitCategoryIndexEv(ptr noundef nonnull align 4 dereferenceable(12) %13)
  store i32 %34, ptr %6, align 4, !tbaa !14
  call void @llvm.lifetime.start.p0(i64 4, ptr %7) #14
  %35 = load ptr, ptr %5, align 8, !tbaa !79
  %36 = call noundef i32 @_ZNK6icu_7714SingleUnitImpl20getUnitCategoryIndexEv(ptr noundef nonnull align 4 dereferenceable(12) %35)
  store i32 %36, ptr %7, align 4, !tbaa !14
  %37 = load i32, ptr %6, align 4, !tbaa !14
  %38 = load i32, ptr %7, align 4, !tbaa !14
  %39 = icmp slt i32 %37, %38
  br i1 %39, label %40, label %41

40:                                               ; preds = %33
  store i32 -1, ptr %3, align 4
  store i32 1, ptr %8, align 4
  br label %119

41:                                               ; preds = %33
  %42 = load i32, ptr %6, align 4, !tbaa !14
  %43 = load i32, ptr %7, align 4, !tbaa !14
  %44 = icmp sgt i32 %42, %43
  br i1 %44, label %45, label %46

45:                                               ; preds = %41
  store i32 1, ptr %3, align 4
  store i32 1, ptr %8, align 4
  br label %119

46:                                               ; preds = %41
  %47 = getelementptr inbounds nuw %"struct.icu_77::SingleUnitImpl", ptr %13, i32 0, i32 0
  %48 = load i32, ptr %47, align 4, !tbaa !86
  %49 = load ptr, ptr %5, align 8, !tbaa !79
  %50 = getelementptr inbounds nuw %"struct.icu_77::SingleUnitImpl", ptr %49, i32 0, i32 0
  %51 = load i32, ptr %50, align 4, !tbaa !86
  %52 = icmp slt i32 %48, %51
  br i1 %52, label %53, label %54

53:                                               ; preds = %46
  store i32 -1, ptr %3, align 4
  store i32 1, ptr %8, align 4
  br label %119

54:                                               ; preds = %46
  %55 = getelementptr inbounds nuw %"struct.icu_77::SingleUnitImpl", ptr %13, i32 0, i32 0
  %56 = load i32, ptr %55, align 4, !tbaa !86
  %57 = load ptr, ptr %5, align 8, !tbaa !79
  %58 = getelementptr inbounds nuw %"struct.icu_77::SingleUnitImpl", ptr %57, i32 0, i32 0
  %59 = load i32, ptr %58, align 4, !tbaa !86
  %60 = icmp sgt i32 %56, %59
  br i1 %60, label %61, label %62

61:                                               ; preds = %54
  store i32 1, ptr %3, align 4
  store i32 1, ptr %8, align 4
  br label %119

62:                                               ; preds = %54
  call void @llvm.lifetime.start.p0(i64 4, ptr %9) #14
  %63 = getelementptr inbounds nuw %"struct.icu_77::SingleUnitImpl", ptr %13, i32 0, i32 1
  %64 = load i32, ptr %63, align 4, !tbaa !81
  %65 = call i32 @umeas_getPrefixBase_77(i32 noundef %64)
  store i32 %65, ptr %9, align 4, !tbaa !14
  call void @llvm.lifetime.start.p0(i64 4, ptr %10) #14
  %66 = load ptr, ptr %5, align 8, !tbaa !79
  %67 = getelementptr inbounds nuw %"struct.icu_77::SingleUnitImpl", ptr %66, i32 0, i32 1
  %68 = load i32, ptr %67, align 4, !tbaa !81
  %69 = call i32 @umeas_getPrefixBase_77(i32 noundef %68)
  store i32 %69, ptr %10, align 4, !tbaa !14
  call void @llvm.lifetime.start.p0(i64 4, ptr %11) #14
  %70 = load i32, ptr %9, align 4, !tbaa !14
  %71 = icmp eq i32 %70, 1024
  br i1 %71, label %72, label %77

72:                                               ; preds = %62
  %73 = getelementptr inbounds nuw %"struct.icu_77::SingleUnitImpl", ptr %13, i32 0, i32 1
  %74 = load i32, ptr %73, align 4, !tbaa !81
  %75 = call i32 @umeas_getPrefixPower_77(i32 noundef %74)
  %76 = mul nsw i32 %75, 3
  br label %81

77:                                               ; preds = %62
  %78 = getelementptr inbounds nuw %"struct.icu_77::SingleUnitImpl", ptr %13, i32 0, i32 1
  %79 = load i32, ptr %78, align 4, !tbaa !81
  %80 = call i32 @umeas_getPrefixPower_77(i32 noundef %79)
  br label %81

81:                                               ; preds = %77, %72
  %82 = phi i32 [ %76, %72 ], [ %80, %77 ]
  store i32 %82, ptr %11, align 4, !tbaa !14
  call void @llvm.lifetime.start.p0(i64 4, ptr %12) #14
  %83 = load i32, ptr %10, align 4, !tbaa !14
  %84 = icmp eq i32 %83, 1024
  br i1 %84, label %85, label %91

85:                                               ; preds = %81
  %86 = load ptr, ptr %5, align 8, !tbaa !79
  %87 = getelementptr inbounds nuw %"struct.icu_77::SingleUnitImpl", ptr %86, i32 0, i32 1
  %88 = load i32, ptr %87, align 4, !tbaa !81
  %89 = call i32 @umeas_getPrefixPower_77(i32 noundef %88)
  %90 = mul nsw i32 %89, 3
  br label %96

91:                                               ; preds = %81
  %92 = load ptr, ptr %5, align 8, !tbaa !79
  %93 = getelementptr inbounds nuw %"struct.icu_77::SingleUnitImpl", ptr %92, i32 0, i32 1
  %94 = load i32, ptr %93, align 4, !tbaa !81
  %95 = call i32 @umeas_getPrefixPower_77(i32 noundef %94)
  br label %96

96:                                               ; preds = %91, %85
  %97 = phi i32 [ %90, %85 ], [ %95, %91 ]
  store i32 %97, ptr %12, align 4, !tbaa !14
  %98 = load i32, ptr %11, align 4, !tbaa !14
  %99 = load i32, ptr %12, align 4, !tbaa !14
  %100 = icmp slt i32 %98, %99
  br i1 %100, label %101, label %102

101:                                              ; preds = %96
  store i32 1, ptr %3, align 4
  store i32 1, ptr %8, align 4
  br label %118

102:                                              ; preds = %96
  %103 = load i32, ptr %11, align 4, !tbaa !14
  %104 = load i32, ptr %12, align 4, !tbaa !14
  %105 = icmp sgt i32 %103, %104
  br i1 %105, label %106, label %107

106:                                              ; preds = %102
  store i32 -1, ptr %3, align 4
  store i32 1, ptr %8, align 4
  br label %118

107:                                              ; preds = %102
  %108 = load i32, ptr %9, align 4, !tbaa !14
  %109 = load i32, ptr %10, align 4, !tbaa !14
  %110 = icmp slt i32 %108, %109
  br i1 %110, label %111, label %112

111:                                              ; preds = %107
  store i32 1, ptr %3, align 4
  store i32 1, ptr %8, align 4
  br label %118

112:                                              ; preds = %107
  %113 = load i32, ptr %9, align 4, !tbaa !14
  %114 = load i32, ptr %10, align 4, !tbaa !14
  %115 = icmp sgt i32 %113, %114
  br i1 %115, label %116, label %117

116:                                              ; preds = %112
  store i32 -1, ptr %3, align 4
  store i32 1, ptr %8, align 4
  br label %118

117:                                              ; preds = %112
  store i32 0, ptr %3, align 4
  store i32 1, ptr %8, align 4
  br label %118

118:                                              ; preds = %117, %116, %111, %106, %101
  call void @llvm.lifetime.end.p0(i64 4, ptr %12) #14
  call void @llvm.lifetime.end.p0(i64 4, ptr %11) #14
  call void @llvm.lifetime.end.p0(i64 4, ptr %10) #14
  call void @llvm.lifetime.end.p0(i64 4, ptr %9) #14
  br label %119

119:                                              ; preds = %118, %61, %53, %45, %40
  call void @llvm.lifetime.end.p0(i64 4, ptr %7) #14
  call void @llvm.lifetime.end.p0(i64 4, ptr %6) #14
  br label %120

120:                                              ; preds = %119, %32, %22
  %121 = load i32, ptr %3, align 4
  ret i32 %121
}

; Function Attrs: mustprogress nounwind uwtable
define internal noundef i32 @_ZN6icu_7712_GLOBAL__N_118compareSingleUnitsEPKvS2_S2_(ptr noundef %0, ptr noundef %1, ptr noundef %2) #0 {
  %4 = alloca ptr, align 8
  %5 = alloca ptr, align 8
  %6 = alloca ptr, align 8
  %7 = alloca ptr, align 8
  %8 = alloca ptr, align 8
  store ptr %0, ptr %4, align 8, !tbaa !22
  store ptr %1, ptr %5, align 8, !tbaa !22
  store ptr %2, ptr %6, align 8, !tbaa !22
  call void @llvm.lifetime.start.p0(i64 8, ptr %7) #14
  %9 = load ptr, ptr %5, align 8, !tbaa !22
  store ptr %9, ptr %7, align 8, !tbaa !115
  call void @llvm.lifetime.start.p0(i64 8, ptr %8) #14
  %10 = load ptr, ptr %6, align 8, !tbaa !22
  store ptr %10, ptr %8, align 8, !tbaa !115
  %11 = load ptr, ptr %7, align 8, !tbaa !115
  %12 = load ptr, ptr %11, align 8, !tbaa !79
  %13 = load ptr, ptr %8, align 8, !tbaa !115
  %14 = load ptr, ptr %13, align 8, !tbaa !79
  %15 = call noundef i32 @_ZNK6icu_7714SingleUnitImpl9compareToERKS0_(ptr noundef nonnull align 4 dereferenceable(12) %12, ptr noundef nonnull align 4 dereferenceable(12) %14)
  call void @llvm.lifetime.end.p0(i64 8, ptr %8) #14
  call void @llvm.lifetime.end.p0(i64 8, ptr %7) #14
  ret i32 %15
}