; Function Attrs: mustprogress nofree norecurse nosync nounwind willreturn memory(read, inaccessiblemem: none) uwtable
define internal noundef range(i32 -1, 2) i32 @_ZN6icu_7712_GLOBAL__N_118compareSingleUnitsEPKvS2_S2_(ptr readnone captures(none) %0, ptr noundef readonly captures(none) %1, ptr noundef readonly captures(none) %2) #13 {
  %4 = load ptr, ptr %1, align 8, !tbaa !34
  %5 = load ptr, ptr %2, align 8, !tbaa !34
  %6 = getelementptr inbounds nuw i8, ptr %4, i64 8
  %7 = load i32, ptr %6, align 4, !tbaa !36
  %8 = icmp slt i32 %7, 0
  %9 = getelementptr inbounds nuw i8, ptr %5, i64 8
  %10 = load i32, ptr %9, align 4
  %11 = icmp sgt i32 %10, 0
  %or.cond.i = select i1 %8, i1 %11, i1 false
  br i1 %or.cond.i, label %_ZNK6icu_7714SingleUnitImpl9compareToERKS0_.exit, label %12

12:                                               ; preds = %3
  %13 = icmp sgt i32 %7, 0
  %14 = icmp slt i32 %10, 0
  %or.cond35.i = select i1 %13, i1 %14, i1 false
  br i1 %or.cond35.i, label %_ZNK6icu_7714SingleUnitImpl9compareToERKS0_.exit, label %15

15:                                               ; preds = %12
  %16 = load ptr, ptr @_ZN6icu_7712_GLOBAL__N_121gSimpleUnitCategoriesE, align 8, !tbaa !61
  %17 = load i32, ptr %4, align 4, !tbaa !84
  %18 = sext i32 %17 to i64
  %19 = getelementptr inbounds i32, ptr %16, i64 %18
  %20 = load i32, ptr %19, align 4, !tbaa !12
  %21 = load i32, ptr %5, align 4, !tbaa !84
  %22 = sext i32 %21 to i64
  %23 = getelementptr inbounds i32, ptr %16, i64 %22
  %24 = load i32, ptr %23, align 4, !tbaa !12
  %25 = icmp slt i32 %20, %24
  br i1 %25, label %_ZNK6icu_7714SingleUnitImpl9compareToERKS0_.exit, label %26

26:                                               ; preds = %15
  %27 = icmp sgt i32 %20, %24
  br i1 %27, label %_ZNK6icu_7714SingleUnitImpl9compareToERKS0_.exit, label %28

28:                                               ; preds = %26
  %29 = icmp slt i32 %17, %21
  br i1 %29, label %_ZNK6icu_7714SingleUnitImpl9compareToERKS0_.exit, label %30

30:                                               ; preds = %28
  %31 = icmp sgt i32 %17, %21
  br i1 %31, label %_ZNK6icu_7714SingleUnitImpl9compareToERKS0_.exit, label %32

32:                                               ; preds = %30
  %33 = getelementptr inbounds nuw i8, ptr %4, i64 4
  %34 = load i32, ptr %33, align 4, !tbaa !85
  %35 = add i32 %34, 51
  %or.cond.i.i = icmp ult i32 %35, -8
  %36 = getelementptr inbounds nuw i8, ptr %5, i64 4
  %37 = load i32, ptr %36, align 4, !tbaa !85
  %38 = add i32 %37, 59
  %or.cond.i36.i = icmp ult i32 %38, 8
  %39 = mul i32 %34, 3
  %40 = add i32 %39, 180
  %.0.i41.i = add nsw i32 %34, -30
  %41 = select i1 %or.cond.i.i, i32 %.0.i41.i, i32 %40
  %42 = mul i32 %37, 3
  %43 = add i32 %42, 180
  %.0.i47.i = add nsw i32 %37, -30
  %44 = select i1 %or.cond.i36.i, i32 %43, i32 %.0.i47.i
  %45 = icmp slt i32 %41, %44
  br i1 %45, label %_ZNK6icu_7714SingleUnitImpl9compareToERKS0_.exit, label %46

46:                                               ; preds = %32
  %47 = icmp sgt i32 %41, %44
  br i1 %47, label %_ZNK6icu_7714SingleUnitImpl9compareToERKS0_.exit, label %48

48:                                               ; preds = %46
  %49 = and i1 %or.cond.i.i, %or.cond.i36.i
  br i1 %49, label %_ZNK6icu_7714SingleUnitImpl9compareToERKS0_.exit, label %50

50:                                               ; preds = %48
  %.demorgan.i = or i1 %or.cond.i.i, %or.cond.i36.i
  %51 = xor i1 %.demorgan.i, true
  %..i = sext i1 %51 to i32
  br label %_ZNK6icu_7714SingleUnitImpl9compareToERKS0_.exit

_ZNK6icu_7714SingleUnitImpl9compareToERKS0_.exit: ; preds = %3, %12, %15, %26, %28, %30, %32, %46, %48, %50
  %.0.i = phi i32 [ 1, %3 ], [ -1, %12 ], [ -1, %15 ], [ 1, %26 ], [ -1, %28 ], [ 1, %30 ], [ 1, %32 ], [ -1, %46 ], [ 1, %48 ], [ %..i, %50 ]
  ret i32 %.0.i
}